target datalayout = "e-m:e-p270:32:32-p271:32:32-p272:64:64-i64:64-i128:128-f80:128-n8:16:32:64-S128"
target triple = "x86_64-pc-linux-gnu"

%struct.jv = type { i8, i8, i16, i32, %union.anon }
%union.anon = type { ptr }
%struct.lexer_param = type { ptr }
%struct.block = type { ptr, ptr }
%struct.locfile = type { %struct.jv, ptr, i32, ptr, i32, ptr, ptr, i32 }

; Function Attrs: nounwind uwtable
define dso_local i32 @jq_parse(ptr noundef %0, ptr noundef %1) #0 {
  %3 = alloca ptr, align 8
  %4 = alloca ptr, align 8
  %5 = alloca %struct.lexer_param, align 8
  %6 = alloca ptr, align 8
  %7 = alloca i32, align 4
  %8 = alloca %struct.block, align 8
  %9 = alloca %struct.block, align 8
  store ptr %0, ptr %3, align 8, !tbaa !12
  store ptr %1, ptr %4, align 8, !tbaa !8
  call void @llvm.lifetime.start.p0(i64 8, ptr %5) #8
  call void @llvm.lifetime.start.p0(i64 8, ptr %6) #8
  %10 = getelementptr inbounds nuw %struct.lexer_param, ptr %5, i32 0, i32 0
  %11 = call i32 @jq_yylex_init_extra(i32 noundef 0, ptr noundef %10)
  %12 = load ptr, ptr %3, align 8, !tbaa !12
  %13 = getelementptr inbounds nuw %struct.locfile, ptr %12, i32 0, i32 1
  %14 = load ptr, ptr %13, align 8, !tbaa !56
  %15 = load ptr, ptr %3, align 8, !tbaa !12
  %16 = getelementptr inbounds nuw %struct.locfile, ptr %15, i32 0, i32 2
  %17 = load i32, ptr %16, align 8, !tbaa !60
  %18 = getelementptr inbounds nuw %struct.lexer_param, ptr %5, i32 0, i32 0
  %19 = load ptr, ptr %18, align 8, !tbaa !22
  %20 = call ptr @jq_yy_scan_bytes(ptr noundef %14, i32 noundef %17, ptr noundef %19)
  store ptr %20, ptr %6, align 8, !tbaa !61
  call void @llvm.lifetime.start.p0(i64 4, ptr %7) #8
  store i32 0, ptr %7, align 4, !tbaa !18
  %21 = load ptr, ptr %4, align 8, !tbaa !8
  call void @llvm.lifetime.start.p0(i64 16, ptr %8) #8
  %22 = call { ptr, ptr } (...) @gen_noop()
  %23 = getelementptr inbounds nuw { ptr, ptr }, ptr %8, i32 0, i32 0
  %24 = extractvalue { ptr, ptr } %22, 0
  store ptr %24, ptr %23, align 8
  %25 = getelementptr inbounds nuw { ptr, ptr }, ptr %8, i32 0, i32 1
  %26 = extractvalue { ptr, ptr } %22, 1
  store ptr %26, ptr %25, align 8
  call void @llvm.memcpy.p0.p0.i64(ptr align 8 %21, ptr align 8 %8, i64 16, i1 false), !tbaa.struct !39
  call void @llvm.lifetime.end.p0(i64 16, ptr %8) #8
  %27 = load ptr, ptr %4, align 8, !tbaa !8
  %28 = load ptr, ptr %3, align 8, !tbaa !12
  %29 = call i32 @yyparse(ptr noundef %27, ptr noundef %7, ptr noundef %28, ptr noundef %5)
  %30 = load ptr, ptr %6, align 8, !tbaa !61
  %31 = getelementptr inbounds nuw %struct.lexer_param, ptr %5, i32 0, i32 0
  %32 = load ptr, ptr %31, align 8, !tbaa !22
  call void @jq_yy_delete_buffer(ptr noundef %30, ptr noundef %32)
  %33 = getelementptr inbounds nuw %struct.lexer_param, ptr %5, i32 0, i32 0
  %34 = load ptr, ptr %33, align 8, !tbaa !22
  %35 = call i32 @jq_yylex_destroy(ptr noundef %34)
  %36 = load i32, ptr %7, align 4, !tbaa !18
  %37 = icmp sgt i32 %36, 0
  br i1 %37, label %38, label %50

38:                                               ; preds = %2
  %39 = load ptr, ptr %4, align 8, !tbaa !8
  %40 = getelementptr inbounds nuw { ptr, ptr }, ptr %39, i32 0, i32 0
  %41 = load ptr, ptr %40, align 8
  %42 = getelementptr inbounds nuw { ptr, ptr }, ptr %39, i32 0, i32 1
  %43 = load ptr, ptr %42, align 8
  call void @block_free(ptr %41, ptr %43)
  %44 = load ptr, ptr %4, align 8, !tbaa !8
  call void @llvm.lifetime.start.p0(i64 16, ptr %9) #8
  %45 = call { ptr, ptr } (...) @gen_noop()
  %46 = getelementptr inbounds nuw { ptr, ptr }, ptr %9, i32 0, i32 0
  %47 = extractvalue { ptr, ptr } %45, 0
  store ptr %47, ptr %46, align 8
  %48 = getelementptr inbounds nuw { ptr, ptr }, ptr %9, i32 0, i32 1
  %49 = extractvalue { ptr, ptr } %45, 1
  store ptr %49, ptr %48, align 8
  call void @llvm.memcpy.p0.p0.i64(ptr align 8 %44, ptr align 8 %9, i64 16, i1 false), !tbaa.struct !39
  call void @llvm.lifetime.end.p0(i64 16, ptr %9) #8
  br label %50

50:                                               ; preds = %38, %2
  %51 = load i32, ptr %7, align 4, !tbaa !18
  call void @llvm.lifetime.end.p0(i64 4, ptr %7) #8
  call void @llvm.lifetime.end.p0(i64 8, ptr %6) #8
  call void @llvm.lifetime.end.p0(i64 8, ptr %5) #8
  ret i32 %51
}