; Function Attrs: nounwind uwtable
define dso_local i32 @jq_parse(ptr noundef %0, ptr noundef captures(none) initializes((0, 16)) %1) local_unnamed_addr #0 {
  %3 = alloca %struct.lexer_param, align 8
  %4 = alloca i32, align 4
  call void @llvm.lifetime.start.p0(i64 8, ptr nonnull %3) #10
  %5 = call i32 @jq_yylex_init_extra(i32 noundef 0, ptr noundef nonnull %3) #10
  %6 = getelementptr inbounds nuw i8, ptr %0, i64 16
  %7 = load ptr, ptr %6, align 8, !tbaa !29
  %8 = getelementptr inbounds nuw i8, ptr %0, i64 24
  %9 = load i32, ptr %8, align 8, !tbaa !34
  %10 = load ptr, ptr %3, align 8, !tbaa !8
  %11 = call ptr @jq_yy_scan_bytes(ptr noundef %7, i32 noundef %9, ptr noundef %10) #10
  call void @llvm.lifetime.start.p0(i64 4, ptr nonnull %4) #10
  store i32 0, ptr %4, align 4, !tbaa !4
  %12 = call { ptr, ptr } (...) @gen_noop() #10
  %13 = extractvalue { ptr, ptr } %12, 0
  %14 = extractvalue { ptr, ptr } %12, 1
  store ptr %13, ptr %1, align 8, !tbaa !20
  %.sroa.42.0..sroa_idx = getelementptr inbounds nuw i8, ptr %1, i64 8
  store ptr %14, ptr %.sroa.42.0..sroa_idx, align 8, !tbaa !20
  %15 = call i32 @yyparse(ptr noundef nonnull %1, ptr noundef nonnull %4, ptr noundef %0, ptr noundef nonnull %3)
  %16 = load ptr, ptr %3, align 8, !tbaa !8
  call void @jq_yy_delete_buffer(ptr noundef %11, ptr noundef %16) #10
  %17 = load ptr, ptr %3, align 8, !tbaa !8
  %18 = call i32 @jq_yylex_destroy(ptr noundef %17) #10
  %19 = load i32, ptr %4, align 4, !tbaa !4
  %20 = icmp sgt i32 %19, 0
  br i1 %20, label %21, label %27

21:                                               ; preds = %2
  %22 = load ptr, ptr %1, align 8
  %23 = load ptr, ptr %.sroa.42.0..sroa_idx, align 8
  call void @block_free(ptr %22, ptr %23) #10
  %24 = call { ptr, ptr } (...) @gen_noop() #10
  %25 = extractvalue { ptr, ptr } %24, 0
  %26 = extractvalue { ptr, ptr } %24, 1
  store ptr %25, ptr %1, align 8, !tbaa !20
  store ptr %26, ptr %.sroa.42.0..sroa_idx, align 8, !tbaa !20
  br label %27

27:                                               ; preds = %21, %2
  call void @llvm.lifetime.end.p0(i64 4, ptr nonnull %4) #10
  call void @llvm.lifetime.end.p0(i64 8, ptr nonnull %3) #10
  ret i32 %19
}